c__builtin__
set
p0
((lp1
I9719
aI4099
aI2053
aI6151
aI7297
aI9343
aI2063
aI8209
aI6163
aI2069
aI4441
aI8219
aI6173
aI6343
aI4127
aI2081
aI2083
aI8647
aI4133
aI2087
aI8429
aI2089
aI3079
aI8237
aI7517
aI2099
aI6197
aI6199
aI4639
aI4153
aI4447
aI4157
aI2111
aI8731
aI2113
aI6211
aI8663
aI8263
aI4583
aI6217
aI8887
aI6221
aI2129
aI8527
aI2131
aI6229
aI3769
aI2137
aI4111
aI2141
aI2143
aI7867
aI8293
aI6247
aI2153
aI9619
aI6823
aI8893
aI2161
aI9551
aI4211
aI6263
aI4217
aI4219
aI6269
aI6271
aI7927
aI2179
aI4229
aI4231
aI8737
aI8329
aI9739
aI9239
aI8629
aI6287
aI4241
aI4243
aI7193
aI2203
aI4253
aI7643
aI2207
aI8353
aI4259
aI2213
aI6311
aI7507
aI7879
aI2221
aI4271
aI4273
aI6323
aI6689
aI6329
aI4283
aI4507
aI2237
aI2239
aI4289
aI2243
aI8389
aI4129
aI4297
aI2251
aI6353
aI7039
aI6359
aI6361
aI2267
aI2269
aI3109
aI7577
aI2273
aI8419
aI9623
aI6373
aI4327
aI2281
aI6379
aI8123
aI2287
aI4337
aI4339
aI2293
aI8233
aI2297
aI7207
aI8443
aI4349
aI7237
aI7919
aI9283
aI4139
aI8039
aI2309
aI2311
aI4363
aI8461
aI7213
aI8867
aI5507
aI4373
aI5849
aI4789
aI5167
aI2333
aI8581
aI2339
aI2341
aI4391
aI2347
aI4397
aI2351
aI6449
aI9421
aI6451
aI7307
aI2357
aI4409
aI9967
aI7853
aI2371
aI6421
aI4421
aI4423
aI2377
aI2381
aI2383
aI7529
aI6481
aI7907
aI8431
aI2389
aI2393
aI5519
aI6317
aI2399
aI7349
aI4451
aI9491
aI4457
aI2411
aI4463
aI7309
aI2417
aI8563
aI2423
aI6521
aI6491
aI4159
aI8573
aI8537
aI7573
aI4481
aI4483
aI2437
aI9281
aI2441
aI8599
aI4493
aI2447
aI6547
aI8597
aI6551
aI6553
aI7013
aI2459
aI5881
aI5189
aI4513
aI5333
aI2467
aI4517
aI4519
aI2473
aI4523
aI6389
aI2477
aI8623
aI6577
aI6899
aI6581
aI8539
aI7583
aI7789
aI8641
aI4547
aI4549
aI2503
aI9767
aI5879
aI6607
aI4561
aI6563
aI9631
aI4567
aI2521
aI6619
aI8669
aI2531
aI8677
aI4177
aI8681
aI2539
aI6637
aI2543
aI8609
aI7177
aI2549
aI2551
aI6427
aI3631
aI4603
aI2557
aI7253
aI7723
aI1451
aI6661
aI8713
aI4621
aI8269
aI8719
aI6673
aI2579
aI6679
aI7451
aI5309
aI4637
aI2591
aI2593
aI4643
aI8741
aI4649
aI7247
aI4651
aI6701
aI9293
aI6703
aI2609
aI8543
aI7603
aI6709
aI4663
aI2617
aI9157
aI8287
aI2621
aI6719
aI4673
aI8971
aI4679
aI2633
aI7607
aI6733
aI7949
aI5407
aI6737
aI6089
aI4691
aI8951
aI4657
aI2647
aI7951
aI4703
aI2657
aI2659
aI2663
aI6761
aI6763
aI7219
aI2671
aI9227
aI4721
aI4723
aI2677
aI4201
aI4729
aI2683
aI9091
aI4733
aI2687
aI2689
aI9323
aI2693
aI8273
aI5477
aI6793
aI2699
aI4751
aI8849
aI2707
aI5869
aI2711
aI2713
aI8861
aI2719
aI6569
aI7933
aI6257
aI2729
aI2731
aI6829
aI8747
aI4783
aI6833
aI4787
aI8447
aI2741
aI1481
aI4793
aI8297
aI2749
aI4799
aI2753
aI9811
aI6857
aI8311
aI4813
aI2767
aI4817
aI6947
aI6869
aI6871
aI2777
aI8923
aI6571
aI4831
aI8929
aI8761
aI6883
aI2789
aI2791
aI5927
aI2797
aI8317
aI2801
aI2803
aI8161
aI6907
aI4861
aI1493
aI8693
aI2819
aI6917
aI4871
aI7459
aI7639
aI4877
aI8243
aI4909
aI2833
aI5297
aI2837
aI4889
aI2843
aI9851
aI6277
aI7187
aI2851
aI9791
aI6949
aI4903
aI2857
aI2861
aI9007
aI6959
aI6301
aI6961
aI9011
aI9013
aI9029
aI4919
aI4801
aI6971
aI9643
aI2879
aI6977
aI4931
aI4933
aI2887
aI6029
aI4937
aI6967
aI9439
aI4943
aI2897
aI8689
aI6997
aI2903
aI7001
aI2909
aI9059
aI2917
aI4967
aI4969
aI1511
aI4973
aI2927
aI7027
aI8963
aI2939
aI5417
aI6781
aI4993
aI7043
aI4999
aI8803
aI2953
aI5003
aI2957
aI9103
aI8179
aI5009
aI2963
aI9109
aI5827
aI7321
aI2969
aI2971
aI8059
aI5021
aI5023
aI6299
aI7753
aI7079
aI6983
aI9133
aI1181
aI9137
aI1523
aI2999
aI3001
aI5051
aI8147
aI4597
aI9511
aI3011
aI7109
aI9377
aI9161
aI8011
aI3019
aI5897
aI3023
aI5147
aI7121
aI7331
aI5077
aI7127
aI5081
aI3919
aI3037
aI4261
aI7057
aI3041
aI8699
aI8017
aI7549
aI3049
aI5099
aI5101
aI6653
aI8831
aI1009
aI5107
aI3061
aI7159
aI5113
aI3067
aI1021
aI5119
aI8363
aI9221
aI8231
aI1031
aI1033
aI3083
aI8627
aI1039
aI3089
aI7877
aI6659
aI9241
aI9923
aI9049
aI1049
aI1051
aI7741
aI8423
aI5153
aI6991
aI1061
aI1063
aI9257
aI5639
aI8969
aI1069
aI3119
aI3121
aI5171
aI5641
aI6037
aI5179
aI7229
aI1087
aI3137
aI1091
aI1093
aI1097
aI9311
aI7243
aI5197
aI1103
aI7129
aI1109
aI8377
aI5209
aI3163
aI1117
aI3167
aI3169
aI1123
aI7727
aI9319
aI1129
aI5227
aI8221
aI3181
aI5231
aI5233
aI3187
aI5237
aI3191
aI8941
aI9337
aI9341
aI1151
aI6827
aI1153
aI3203
aI9349
aI6337
aI3209
aI1163
aI5261
aI3217
aI1171
aI9859
aI3221
aI5273
aI9371
aI3229
aI9041
aI5279
aI5281
aI1187
aI7333
aI1193
aI1223
aI9391
aI8837
aI1201
aI3251
aI6841
aI3253
aI5303
aI3257
aI3259
aI1213
aI1217
aI9419
aI9187
aI9413
aI3271
aI7369
aI5323
aI1229
aI1231
aI4951
aI6691
aI1237
aI9431
aI9433
aI9043
aI9437
aI7717
aI1249
aI3299
aI3301
aI9587
aI5351
aI1259
aI8839
aI3313
aI7411
aI9461
aI8369
aI3319
aI4591
aI7417
aI3323
aI1277
aI1279
aI3329
aI1283
aI5381
aI9931
aI9479
aI1289
aI1291
aI3343
aI1297
aI3347
aI1301
aI1303
aI9497
aI1307
aI6863
aI3359
aI3361
aI6113
aI5413
aI1319
aI1321
aI3371
aI3373
aI1327
aI9521
aI7477
aI5431
aI7481
aI6367
aI4987
aI3389
aI3391
aI5441
aI5443
aI7393
aI5449
aI7499
aI3407
aI1361
aI5347
aI3413
aI1367
aI9661
aI1373
aI5471
aI7523
aI6047
aI1381
aI5479
aI8093
aI3433
aI5483
aI5693
aI8707
aI7537
aI5011
aI7541
aI5843
aI1399
aI3449
aI7547
aI5501
aI5503
aI1409
aI3307
aI3461
aI4957
aI3463
aI7561
aI3467
aI3469
aI1423
aI3457
aI5521
aI1427
aI1429
aI5527
aI1433
aI5531
aI9629
aI1439
aI3491
aI7589
aI1447
aI3499
aI1453
aI7069
aI9649
aI1459
aI5557
aI3511
aI8117
aI5563
aI7823
aI3517
aI1471
aI5569
aI6911
aI8779
aI5573
aI3527
aI7687
aI3529
aI1483
aI3533
aI1487
aI1489
aI3539
aI3541
aI5591
aI9781
aI9689
aI3547
aI9721
aI8101
aI8807
aI7649
aI9467
aI3557
aI3559
aI9127
aI6397
aI6529
aI7211
aI3571
aI5779
aI7669
aI5623
aI7673
aI1531
aI9871
aI3581
aI7757
aI3583
aI7681
aI9803
aI9733
aI1543
aI3593
aI7621
aI7691
aI1549
aI5647
aI1553
aI3331
aI6803
aI5653
aI1559
aI5657
aI5039
aI3613
aI1567
aI3617
aI1571
aI9203
aI5669
aI6599
aI3623
aI9769
aI1579
aI1583
aI8753
aI5683
aI3637
aI7433
aI5689
aI7759
aI3643
aI1597
aI4021
aI1601
aI5387
aI5701
aI1607
aI1609
aI3659
aI4759
aI1613
aI5711
aI9601
aI7487
aI1619
aI1621
aI3671
aI3673
aI8783
aI1627
aI3677
aI9829
aI7103
aI9397
aI4027
aI1637
aI5851
aI5393
aI5737
aI3691
aI5741
aI5743
aI7829
aI3697
aI8467
aI3701
aI9833
aI1657
aI6079
aI3709
aI8999
aI1663
aI9533
aI9857
aI1667
aI1669
aI3719
aI7817
aI5399
aI3727
aI5059
aI3733
aI5783
aI3739
aI1693
aI5791
aI1697
aI9613
aI1699
aI9463
aI7793
aI5801
aI1709
aI5717
aI5807
aI3761
aI8819
aI5813
aI3767
aI8191
aI1721
aI5581
aI1723
aI5821
aI5749
aI7873
aI3779
aI7559
aI1733
aI7457
aI9929
aI7883
aI1741
aI5839
aI3793
aI1747
aI3797
aI1753
aI3803
aI7901
aI1759
aI5857
aI6779
aI5861
aI6469
aI7151
aI5867
aI3821
aI3823
aI5651
aI1777
aI9199
aI4051
aI9973
aI1783
aI9743
aI3833
aI1787
aI1789
aI9173
aI7937
aI5419
aI9941
aI3847
aI1801
aI3851
aI3853
aI5903
aI1811
aI9403
aI3863
aI7963
aI1823
aI9949
aI5923
aI4357
aI3877
aI7591
aI1831
aI3607
aI3881
aI6791
aI8513
aI9181
aI7699
aI3889
aI5939
aI1847
aI8291
aI7993
aI9677
aI5087
aI7351
aI8501
aI5953
aI3907
aI1861
aI3911
aI8009
aI1867
aI9473
aI3917
aI1871
aI1873
aI3923
aI1877
aI1879
aI3929
aI3931
aI5981
aI9907
aI1889
aI5987
aI9883
aI3943
aI3947
aI9787
aI1901
aI5437
aI8821
aI1907
aI8053
aI9679
aI6007
aI1913
aI6011
aI3967
aI8171
aI8069
aI7489
aI1931
aI1933
aI9697
aI9901
aI8081
aI9539
aI3989
aI8087
aI8089
aI6043
aI1949
aI8521
aI1951
aI4001
aI9151
aI4003
aI6053
aI9817
aI4007
aI7703
aI9001
aI9067
aI9749
aI4013
aI8111
aI6203
aI4019
aI1973
aI6473
aI9277
aI6073
aI1979
aI8863
aI6067
aI1013
aI1987
aI7841
aI8933
aI1993
aI6091
aI1997
aI1999
aI4049
aI2003
aI7283
aI6101
aI9209
aI4057
aI2011
aI9887
aI1499
aI5659
aI2017
aI1019
aI8387
aI8167
aI4073
aI2027
aI9547
aI2029
aI4079
aI6131
aI7019
aI6133
aI9839
aI2039
aI6121
aI4091
aI4093
aI6143
atp2
Rp3
.